; ModuleID = '37/1674.c'
source_filename = "37/1674.c"
target datalayout = "e-m:e-p270:32:32-p271:32:32-p272:64:64-i64:64-f80:128-n8:16:32:64-S128"
target triple = "x86_64-pc-linux-gnu"

@.str = private unnamed_addr constant [3 x i8] c"%d\00", align 1
@.str.1 = private unnamed_addr constant [3 x i8] c"%s\00", align 1
@.str.2 = private unnamed_addr constant [4 x i8] c"%c\0A\00", align 1
@.str.3 = private unnamed_addr constant [4 x i8] c"no\0A\00", align 1

; Function Attrs: noinline nounwind uwtable
define dso_local i32 @main() #0 {
  %1 = alloca i32, align 4
  %2 = alloca i32, align 4
  %3 = alloca i32, align 4
  %4 = alloca i32, align 4
  %5 = alloca i32, align 4
  %6 = alloca i32, align 4
  %7 = alloca [100005 x i8], align 16
  store i32 0, i32* %1, align 4
  %8 = call i32 (i8*, ...) @__isoc99_scanf(i8* getelementptr inbounds ([3 x i8], [3 x i8]* @.str, i64 0, i64 0), i32* %2)
  store i32 1, i32* %5, align 4
  br label %9

9:                                                ; preds = %84, %0
  %10 = load i32, i32* %5, align 4
  %11 = load i32, i32* %2, align 4
  %12 = icmp sle i32 %10, %11
  br i1 %12, label %13, label %87

13:                                               ; preds = %9
  %14 = getelementptr inbounds [100005 x i8], [100005 x i8]* %7, i64 0, i64 0
  %15 = call i32 (i8*, ...) @__isoc99_scanf(i8* getelementptr inbounds ([3 x i8], [3 x i8]* @.str.1, i64 0, i64 0), i8* %14)
  store i32 0, i32* %3, align 4
  br label %16

16:                                               ; preds = %25, %13
  %17 = load i32, i32* %3, align 4
  %18 = sext i32 %17 to i64
  %19 = getelementptr inbounds [100005 x i8], [100005 x i8]* %7, i64 0, i64 %18
  %20 = load i8, i8* %19, align 1
  %21 = sext i8 %20 to i32
  %22 = icmp ne i32 %21, 0
  br i1 %22, label %23, label %28

23:                                               ; preds = %16
  %24 = load i32, i32* %3, align 4
  store i32 %24, i32* %6, align 4
  br label %25

25:                                               ; preds = %23
  %26 = load i32, i32* %3, align 4
  %27 = add nsw i32 %26, 1
  store i32 %27, i32* %3, align 4
  br label %16

28:                                               ; preds = %16
  store i32 0, i32* %3, align 4
  br label %29

29:                                               ; preds = %73, %28
  %30 = load i32, i32* %3, align 4
  %31 = load i32, i32* %6, align 4
  %32 = icmp sle i32 %30, %31
  br i1 %32, label %33, label %76

33:                                               ; preds = %29
  store i32 0, i32* %4, align 4
  br label %34

34:                                               ; preds = %57, %33
  %35 = load i32, i32* %4, align 4
  %36 = load i32, i32* %6, align 4
  %37 = icmp sle i32 %35, %36
  br i1 %37, label %38, label %60

38:                                               ; preds = %34
  %39 = load i32, i32* %4, align 4
  %40 = load i32, i32* %3, align 4
  %41 = icmp eq i32 %39, %40
  br i1 %41, label %42, label %43

42:                                               ; preds = %38
  br label %57

43:                                               ; preds = %38
  %44 = load i32, i32* %4, align 4
  %45 = sext i32 %44 to i64
  %46 = getelementptr inbounds [100005 x i8], [100005 x i8]* %7, i64 0, i64 %45
  %47 = load i8, i8* %46, align 1
  %48 = sext i8 %47 to i32
  %49 = load i32, i32* %3, align 4
  %50 = sext i32 %49 to i64
  %51 = getelementptr inbounds [100005 x i8], [100005 x i8]* %7, i64 0, i64 %50
  %52 = load i8, i8* %51, align 1
  %53 = sext i8 %52 to i32
  %54 = icmp eq i32 %48, %53
  br i1 %54, label %55, label %56

55:                                               ; preds = %43
  br label %60

56:                                               ; preds = %43
  br label %57

57:                                               ; preds = %56, %42
  %58 = load i32, i32* %4, align 4
  %59 = add nsw i32 %58, 1
  store i32 %59, i32* %4, align 4
  br label %34

60:                                               ; preds = %55, %34
  %61 = load i32, i32* %4, align 4
  %62 = load i32, i32* %6, align 4
  %63 = add nsw i32 %62, 1
  %64 = icmp eq i32 %61, %63
  br i1 %64, label %65, label %72

65:                                               ; preds = %60
  %66 = load i32, i32* %3, align 4
  %67 = sext i32 %66 to i64
  %68 = getelementptr inbounds [100005 x i8], [100005 x i8]* %7, i64 0, i64 %67
  %69 = load i8, i8* %68, align 1
  %70 = sext i8 %69 to i32
  %71 = call i32 (i8*, ...) @printf(i8* getelementptr inbounds ([4 x i8], [4 x i8]* @.str.2, i64 0, i64 0), i32 %70)
  br label %76

72:                                               ; preds = %60
  br label %73

73:                                               ; preds = %72
  %74 = load i32, i32* %3, align 4
  %75 = add nsw i32 %74, 1
  store i32 %75, i32* %3, align 4
  br label %29

76:                                               ; preds = %65, %29
  %77 = load i32, i32* %3, align 4
  %78 = load i32, i32* %6, align 4
  %79 = add nsw i32 %78, 1
  %80 = icmp eq i32 %77, %79
  br i1 %80, label %81, label %83

81:                                               ; preds = %76
  %82 = call i32 (i8*, ...) @printf(i8* getelementptr inbounds ([4 x i8], [4 x i8]* @.str.3, i64 0, i64 0))
  br label %83

83:                                               ; preds = %81, %76
  br label %84

84:                                               ; preds = %83
  %85 = load i32, i32* %5, align 4
  %86 = add nsw i32 %85, 1
  store i32 %86, i32* %5, align 4
  br label %9

87:                                               ; preds = %9
  %88 = load i32, i32* %1, align 4
  ret i32 %88
}

declare dso_local i32 @__isoc99_scanf(i8*, ...) #1

declare dso_local i32 @printf(i8*, ...) #1


!llvm.module.flags = !{!0}
!llvm.ident = !{!1}

!0 = !{i32 1, !"wchar_size", i32 4}
!1 = !{!"clang version 10.0.0-4ubuntu1 "}
